; Listing generated by Microsoft (R) Optimizing Compiler Version 19.12.25835.0 

include listing.inc

INCLUDELIB OLDNAMES

PUBLIC	??_C@_02JDPG@rb?$AA@				; `string'
PUBLIC	??_C@_02GMLFBBN@wb?$AA@				; `string'
PUBLIC	??_C@_15EFLNJKHH@?$AA?$CF?$AAu?$AA?$AA@		; `string'
PUBLIC	??_C@_15HKBJCNIM@?$AA?$CF?$AAo?$AA?$AA@		; `string'
PUBLIC	??_C@_15KNBIKKIN@?$AA?$CF?$AAd?$AA?$AA@		; `string'
PUBLIC	??_C@_15LPKNAFGD@?$AA?$CF?$AAg?$AA?$AA@		; `string'
PUBLIC	??_C@_15LHNHECKK@?$AA?$CF?$AAx?$AA?$AA@		; `string'
PUBLIC	??_C@_0L@GLMODIE@No?5Error?4?$AA?$AA@		; `string'
PUBLIC	??_C@_0BH@KEKKADFB@Failed?5to?5load?5image?4?$AA?$AA@ ; `string'
PUBLIC	??_C@_0CF@COENLFOH@File?5is?5not?5a?5CDM?5compatible?5ima@ ; `string'
PUBLIC	??_C@_0CE@PFPJLJAK@Memory?5was?5unable?5to?5be?5allocate@ ; `string'
PUBLIC	??_C@_0BA@LEGILMHL@Unknown?5error?4?$AA?$AA@	; `string'
EXTRN	__imp_malloc:PROC
EXTRN	__imp_SetConsoleTitleW:PROC
EXTRN	__imp_WriteConsoleOutputW:PROC
EXTRN	__imp_fread:PROC
EXTRN	__imp_GetConsoleWindow:PROC
EXTRN	__imp_GetNumberOfConsoleInputEvents:PROC
EXTRN	__imp_free:PROC
EXTRN	__imp_GetSystemMetrics:PROC
EXTRN	__imp_FlushConsoleInputBuffer:PROC
EXTRN	__imp_WriteConsoleOutputA:PROC
EXTRN	__imp_CloseHandle:PROC
EXTRN	__imp___stdio_common_vswprintf:PROC
EXTRN	__imp_fwrite:PROC
EXTRN	__imp_ReadConsoleInputA:PROC
EXTRN	__imp_SetConsoleCursorInfo:PROC
EXTRN	__imp_GetLargestConsoleWindowSize:PROC
EXTRN	__imp_SetConsoleScreenBufferInfoEx:PROC
EXTRN	__imp_GetConsoleMode:PROC
EXTRN	__imp_wcscpy_s:PROC
EXTRN	__imp_fseek:PROC
EXTRN	__imp_realloc:PROC
EXTRN	__imp_CreateConsoleScreenBuffer:PROC
EXTRN	__imp_fclose:PROC
EXTRN	__imp_SetConsoleWindowInfo:PROC
EXTRN	__imp_fopen:PROC
EXTRN	__imp_SetCurrentConsoleFontEx:PROC
EXTRN	__imp_SetConsoleMode:PROC
EXTRN	__imp_GetStdHandle:PROC
EXTRN	__imp_SetConsoleScreenBufferSize:PROC
EXTRN	__imp_SetConsoleActiveScreenBuffer:PROC
EXTRN	__imp_SetConsoleDisplayMode:PROC
EXTRN	__imp_GetConsoleScreenBufferInfo:PROC
;	COMDAT ??_C@_0BA@LEGILMHL@Unknown?5error?4?$AA?$AA@
CONST	SEGMENT
??_C@_0BA@LEGILMHL@Unknown?5error?4?$AA?$AA@ DB 'Unknown error.', 00H, 00H ; `string'
CONST	ENDS
;	COMDAT ??_C@_0CE@PFPJLJAK@Memory?5was?5unable?5to?5be?5allocate@
CONST	SEGMENT
??_C@_0CE@PFPJLJAK@Memory?5was?5unable?5to?5be?5allocate@ DB 'Memory was '
	DB	'unable to be allocated.', 00H, 00H		; `string'
CONST	ENDS
;	COMDAT ??_C@_0CF@COENLFOH@File?5is?5not?5a?5CDM?5compatible?5ima@
CONST	SEGMENT
??_C@_0CF@COENLFOH@File?5is?5not?5a?5CDM?5compatible?5ima@ DB 'File is no'
	DB	't a CDM compatible image.', 00H, 00H	; `string'
CONST	ENDS
;	COMDAT ??_C@_0BH@KEKKADFB@Failed?5to?5load?5image?4?$AA?$AA@
CONST	SEGMENT
??_C@_0BH@KEKKADFB@Failed?5to?5load?5image?4?$AA?$AA@ DB 'Failed to load '
	DB	'image.', 00H, 00H				; `string'
CONST	ENDS
;	COMDAT ??_C@_0L@GLMODIE@No?5Error?4?$AA?$AA@
CONST	SEGMENT
??_C@_0L@GLMODIE@No?5Error?4?$AA?$AA@ DB 'No Error.', 00H, 00H ; `string'
CONST	ENDS
;	COMDAT ??_C@_15LHNHECKK@?$AA?$CF?$AAx?$AA?$AA@
CONST	SEGMENT
??_C@_15LHNHECKK@?$AA?$CF?$AAx?$AA?$AA@ DB '%', 00H, 'x', 00H, 00H, 00H ; `string'
CONST	ENDS
;	COMDAT ??_C@_15LPKNAFGD@?$AA?$CF?$AAg?$AA?$AA@
CONST	SEGMENT
??_C@_15LPKNAFGD@?$AA?$CF?$AAg?$AA?$AA@ DB '%', 00H, 'g', 00H, 00H, 00H ; `string'
CONST	ENDS
;	COMDAT ??_C@_15KNBIKKIN@?$AA?$CF?$AAd?$AA?$AA@
CONST	SEGMENT
??_C@_15KNBIKKIN@?$AA?$CF?$AAd?$AA?$AA@ DB '%', 00H, 'd', 00H, 00H, 00H ; `string'
CONST	ENDS
;	COMDAT ??_C@_15HKBJCNIM@?$AA?$CF?$AAo?$AA?$AA@
CONST	SEGMENT
??_C@_15HKBJCNIM@?$AA?$CF?$AAo?$AA?$AA@ DB '%', 00H, 'o', 00H, 00H, 00H ; `string'
CONST	ENDS
;	COMDAT ??_C@_15EFLNJKHH@?$AA?$CF?$AAu?$AA?$AA@
CONST	SEGMENT
??_C@_15EFLNJKHH@?$AA?$CF?$AAu?$AA?$AA@ DB '%', 00H, 'u', 00H, 00H, 00H ; `string'
CONST	ENDS
;	COMDAT ??_C@_02GMLFBBN@wb?$AA@
CONST	SEGMENT
??_C@_02GMLFBBN@wb?$AA@ DB 'wb', 00H			; `string'
CONST	ENDS
;	COMDAT ??_C@_02JDPG@rb?$AA@
CONST	SEGMENT
??_C@_02JDPG@rb?$AA@ DB 'rb', 00H			; `string'
CONST	ENDS
PUBLIC	CDMClearErrno
PUBLIC	CDMSetErrno
PUBLIC	swprintf
PUBLIC	_vswprintf_c_l
PUBLIC	__local_stdio_printf_options
PUBLIC	CDMClearScreen
PUBLIC	CDMCreateContext
PUBLIC	CDMGetR
PUBLIC	CDMSetCursorVisibility
PUBLIC	CDMReadImg
PUBLIC	CDMDraw
PUBLIC	CDMSetWindowTitle
PUBLIC	CDMPollEvents
PUBLIC	CDMGetG
PUBLIC	CDMGetB
PUBLIC	CDMKeepScreenSize
PUBLIC	CDMSetColorRGB
PUBLIC	CDMActivateMouseInput
PUBLIC	CDMExportSrfcToImg
PUBLIC	CDMChangeWindowSize
PUBLIC	CDMSetActiveScheme
PUBLIC	CDMSetFontAndSize
PUBLIC	CDMSetPixel
PUBLIC	CDMCreateSurface
PUBLIC	CDMFreeSurface
PUBLIC	CDMSetCharacters
PUBLIC	CDMSetBackgroundColor
PUBLIC	CDMSetForegroundColor
PUBLIC	CDMAddSurfaceToContext
PUBLIC	CDMPrepareSurface
PUBLIC	CDMGetKeyUp
PUBLIC	CDMPoke
PUBLIC	CDMGetKeyPressed
PUBLIC	CDMGetMousePos
PUBLIC	CDMPrintf
COMM	?_OptionsStorage@?1??__local_stdio_printf_options@@9@9:QWORD							; `__local_stdio_printf_options'::`2'::_OptionsStorage
_DATA	ENDS
;	COMDAT pdata
pdata	SEGMENT
$pdata$swprintf DD imagerel $LN6@swprintf
	DD	imagerel $LN6@swprintf+86
	DD	imagerel $unwind$swprintf
pdata	ENDS
;	COMDAT pdata
pdata	SEGMENT
$pdata$_vswprintf_c_l DD imagerel $LN4@vswprintf_
	DD	imagerel $LN4@vswprintf_+90
	DD	imagerel $unwind$_vswprintf_c_l
pdata	ENDS
;	COMDAT pdata
pdata	SEGMENT
$pdata$CDMCreateContext DD imagerel $LN9@CDMCreateC
	DD	imagerel $LN9@CDMCreateC+315
	DD	imagerel $unwind$CDMCreateContext
pdata	ENDS
;	COMDAT pdata
pdata	SEGMENT
$pdata$CDMSetCursorVisibility DD imagerel $LN4@CDMSetCurs
	DD	imagerel $LN4@CDMSetCurs+44
	DD	imagerel $unwind$CDMSetCursorVisibility
pdata	ENDS
;	COMDAT pdata
pdata	SEGMENT
$pdata$CDMReadImg DD imagerel $LN9@CDMReadImg
	DD	imagerel $LN9@CDMReadImg+229
	DD	imagerel $unwind$CDMReadImg
pdata	ENDS
;	COMDAT pdata
pdata	SEGMENT
$pdata$CDMDraw DD imagerel $LN4@CDMDraw
	DD	imagerel $LN4@CDMDraw+110
	DD	imagerel $unwind$CDMDraw
pdata	ENDS
;	COMDAT pdata
pdata	SEGMENT
$pdata$CDMPollEvents DD imagerel $LN5@CDMPollEve
	DD	imagerel $LN5@CDMPollEve+93
	DD	imagerel $unwind$CDMPollEvents
pdata	ENDS
;	COMDAT pdata
pdata	SEGMENT
$pdata$CDMActivateMouseInput DD imagerel $LN4@CDMActivat
	DD	imagerel $LN4@CDMActivat+60
	DD	imagerel $unwind$CDMActivateMouseInput
pdata	ENDS
;	COMDAT pdata
pdata	SEGMENT
$pdata$CDMExportSrfcToImg DD imagerel $LN35@CDMExportS
	DD	imagerel $LN35@CDMExportS+463
	DD	imagerel $unwind$CDMExportSrfcToImg
pdata	ENDS
;	COMDAT pdata
pdata	SEGMENT
$pdata$CDMChangeWindowSize DD imagerel $LN8@CDMChangeW
	DD	imagerel $LN8@CDMChangeW+456
	DD	imagerel $unwind$CDMChangeWindowSize
pdata	ENDS
;	COMDAT pdata
pdata	SEGMENT
$pdata$CDMSetActiveScheme DD imagerel $LN12@CDMSetActi
	DD	imagerel $LN12@CDMSetActi+98
	DD	imagerel $unwind$CDMSetActiveScheme
pdata	ENDS
;	COMDAT pdata
pdata	SEGMENT
$pdata$CDMSetFontAndSize DD imagerel $LN4@CDMSetFont
	DD	imagerel $LN4@CDMSetFont+124
	DD	imagerel $unwind$CDMSetFontAndSize
pdata	ENDS
;	COMDAT pdata
pdata	SEGMENT
$pdata$CDMCreateSurface DD imagerel $LN15@CDMCreateS
	DD	imagerel $LN15@CDMCreateS+232
	DD	imagerel $unwind$CDMCreateSurface
pdata	ENDS
;	COMDAT pdata
pdata	SEGMENT
$pdata$CDMFreeSurface DD imagerel $LN4@CDMFreeSur
	DD	imagerel $LN4@CDMFreeSur+70
	DD	imagerel $unwind$CDMFreeSurface
pdata	ENDS
;	COMDAT pdata
pdata	SEGMENT
$pdata$CDMAddSurfaceToContext DD imagerel $LN24@CDMAddSurf
	DD	imagerel $LN24@CDMAddSurf+45
	DD	imagerel $unwind$CDMAddSurfaceToContext
pdata	ENDS
;	COMDAT pdata
pdata	SEGMENT
$pdata$1$CDMAddSurfaceToContext DD imagerel $LN24@CDMAddSurf+45
	DD	imagerel $LN24@CDMAddSurf+221
	DD	imagerel $chain$1$CDMAddSurfaceToContext
pdata	ENDS
;	COMDAT pdata
pdata	SEGMENT
$pdata$2$CDMAddSurfaceToContext DD imagerel $LN24@CDMAddSurf+221
	DD	imagerel $LN24@CDMAddSurf+236
	DD	imagerel $chain$2$CDMAddSurfaceToContext
pdata	ENDS
;	COMDAT pdata
pdata	SEGMENT
$pdata$CDMPrepareSurface DD imagerel $LN27@CDMPrepare
	DD	imagerel $LN27@CDMPrepare+25
	DD	imagerel $unwind$CDMPrepareSurface
pdata	ENDS
;	COMDAT pdata
pdata	SEGMENT
$pdata$1$CDMPrepareSurface DD imagerel $LN27@CDMPrepare+25
	DD	imagerel $LN27@CDMPrepare+301
	DD	imagerel $chain$1$CDMPrepareSurface
pdata	ENDS
;	COMDAT pdata
pdata	SEGMENT
$pdata$2$CDMPrepareSurface DD imagerel $LN27@CDMPrepare+301
	DD	imagerel $LN27@CDMPrepare+306
	DD	imagerel $chain$2$CDMPrepareSurface
pdata	ENDS
;	COMDAT pdata
pdata	SEGMENT
$pdata$CDMPoke DD imagerel $LN6@CDMPoke
	DD	imagerel $LN6@CDMPoke+102
	DD	imagerel $unwind$CDMPoke
pdata	ENDS
;	COMDAT pdata
pdata	SEGMENT
$pdata$CDMPrintf DD imagerel $LN190@CDMPrintf
	DD	imagerel $LN190@CDMPrintf+123
	DD	imagerel $unwind$CDMPrintf
pdata	ENDS
;	COMDAT pdata
pdata	SEGMENT
$pdata$3$CDMPrintf DD imagerel $LN190@CDMPrintf+123
	DD	imagerel $LN190@CDMPrintf+2027
	DD	imagerel $chain$3$CDMPrintf
pdata	ENDS
;	COMDAT pdata
pdata	SEGMENT
$pdata$4$CDMPrintf DD imagerel $LN190@CDMPrintf+2027
	DD	imagerel $LN190@CDMPrintf+2172
	DD	imagerel $chain$4$CDMPrintf
pdata	ENDS
;	COMDAT xdata
xdata	SEGMENT
$chain$4$CDMPrintf DD 021H
	DD	imagerel $LN190@CDMPrintf
	DD	imagerel $LN190@CDMPrintf+123
	DD	imagerel $unwind$CDMPrintf
xdata	ENDS
;	COMDAT xdata
xdata	SEGMENT
$chain$3$CDMPrintf DD 083921H
	DD	013f439H
	DD	014d42dH
	DD	015c417H
	DD	0167408H
	DD	imagerel $LN190@CDMPrintf
	DD	imagerel $LN190@CDMPrintf+123
	DD	imagerel $unwind$CDMPrintf
xdata	ENDS
;	COMDAT xdata
xdata	SEGMENT
$unwind$CDMPrintf DD 062019H
	DD	0170112H
	DD	06004e006H
	DD	050023003H
	DD	imagerel __GSHandlerCheck
	DD	080H
xdata	ENDS
;	COMDAT xdata
xdata	SEGMENT
$unwind$CDMPoke DD 020501H
	DD	013405H
xdata	ENDS
;	COMDAT xdata
xdata	SEGMENT
$chain$2$CDMPrepareSurface DD 021H
	DD	imagerel $LN27@CDMPrepare
	DD	imagerel $LN27@CDMPrepare+25
	DD	imagerel $unwind$CDMPrepareSurface
xdata	ENDS
;	COMDAT xdata
xdata	SEGMENT
$chain$1$CDMPrepareSurface DD 040921H
	DD	07409H
	DD	023405H
	DD	imagerel $LN27@CDMPrepare
	DD	imagerel $LN27@CDMPrepare+25
	DD	imagerel $unwind$CDMPrepareSurface
xdata	ENDS
;	COMDAT xdata
xdata	SEGMENT
$unwind$CDMPrepareSurface DD 010401H
	DD	0204H
xdata	ENDS
;	COMDAT xdata
xdata	SEGMENT
$chain$2$CDMAddSurfaceToContext DD 021H
	DD	imagerel $LN24@CDMAddSurf
	DD	imagerel $LN24@CDMAddSurf+45
	DD	imagerel $unwind$CDMAddSurfaceToContext
xdata	ENDS
;	COMDAT xdata
xdata	SEGMENT
$chain$1$CDMAddSurfaceToContext DD 040a21H
	DD	04740aH
	DD	033405H
	DD	imagerel $LN24@CDMAddSurf
	DD	imagerel $LN24@CDMAddSurf+45
	DD	imagerel $unwind$CDMAddSurfaceToContext
xdata	ENDS
;	COMDAT xdata
xdata	SEGMENT
$unwind$CDMAddSurfaceToContext DD 060e01H
	DD	06640eH
	DD	05540eH
	DD	0e00cf00eH
xdata	ENDS
;	COMDAT xdata
xdata	SEGMENT
$unwind$CDMFreeSurface DD 020601H
	DD	030023206H
xdata	ENDS
;	COMDAT xdata
xdata	SEGMENT
$unwind$CDMCreateSurface DD 0a1a01H
	DD	0b741aH
	DD	0a641aH
	DD	09541aH
	DD	08341aH
	DD	0e016521aH
xdata	ENDS
;	COMDAT xdata
xdata	SEGMENT
$unwind$CDMSetFontAndSize DD 021919H
	DD	0130107H
	DD	imagerel __GSHandlerCheck
	DD	080H
xdata	ENDS
;	COMDAT xdata
xdata	SEGMENT
$unwind$CDMSetActiveScheme DD 020601H
	DD	030023206H
xdata	ENDS
;	COMDAT xdata
xdata	SEGMENT
$unwind$CDMChangeWindowSize DD 061c19H
	DD	0e007920eH
	DD	060047005H
	DD	050023003H
	DD	imagerel __GSHandlerCheck
	DD	048H
xdata	ENDS
;	COMDAT xdata
xdata	SEGMENT
$unwind$CDMExportSrfcToImg DD 082419H
	DD	0155415H
	DD	0143415H
	DD	0e00ef215H
	DD	0600b700cH
	DD	imagerel __GSHandlerCheck
	DD	070H
xdata	ENDS
;	COMDAT xdata
xdata	SEGMENT
$unwind$CDMActivateMouseInput DD 010901H
	DD	04209H
xdata	ENDS
;	COMDAT xdata
xdata	SEGMENT
$unwind$CDMPollEvents DD 060f01H
	DD	07640fH
	DD	06340fH
	DD	0700b320fH
xdata	ENDS
;	COMDAT xdata
xdata	SEGMENT
$unwind$CDMDraw DD 010901H
	DD	06209H
xdata	ENDS
;	COMDAT xdata
xdata	SEGMENT
$unwind$CDMReadImg DD 044e01H
	DD	06344eH
	DD	07006320aH
xdata	ENDS
;	COMDAT xdata
xdata	SEGMENT
$unwind$CDMSetCursorVisibility DD 010901H
	DD	04209H
xdata	ENDS
;	COMDAT xdata
xdata	SEGMENT
$unwind$CDMCreateContext DD 044519H
	DD	0e7445H
	DD	03002b206H
	DD	imagerel __GSHandlerCheck
	DD	058H
xdata	ENDS
;	COMDAT xdata
xdata	SEGMENT
$unwind$_vswprintf_c_l DD 060f01H
	DD	09640fH
	DD	08340fH
	DD	0700b520fH
xdata	ENDS
;	COMDAT xdata
xdata	SEGMENT
$unwind$swprintf DD 051201H
	DD	0700e6212H
	DD	0500c600dH
	DD	0300bH
xdata	ENDS
END
